Certificate:
    Data:
        Version: 3 (0x2)
        Serial Number:
            42:38:a5:6f:70:53:40:e4:a4:1a:2c:0f:fc:81:13:42
        Signature Algorithm: sha256WithRSAEncryption
        Issuer: CN=Easy-RSA CA
        Validity
            Not Before: Apr 29 12:09:35 2026 GMT
            Not After : Aug  1 12:09:35 2028 GMT
        Subject: CN=example_ssl_rcpc_rcps_cert
        Subject Public Key Info:
            Public Key Algorithm: rsaEncryption
                Public-Key: (2048 bit)
                Modulus:
                    00:ae:0f:e1:ee:fc:f6:db:75:45:c0:f4:49:72:46:
                    3d:e3:db:0c:c4:34:d2:9e:49:d4:86:4f:19:0d:55:
                    70:50:81:e4:e6:64:56:a8:58:e8:e6:54:0a:16:bc:
                    f4:4b:84:cd:1d:b9:2e:ed:62:b6:cd:62:35:8b:81:
                    18:ab:ff:63:f5:c1:dc:16:3e:a8:dc:ac:11:dd:43:
                    12:f8:ef:f2:f1:af:84:fd:83:fe:a8:d3:46:7d:77:
                    e6:ae:95:61:a6:c9:99:6b:40:61:8d:6e:7e:66:1e:
                    97:77:b0:e8:b7:3d:3a:d5:d7:d3:ee:66:95:62:83:
                    14:cc:5e:32:ff:9e:bd:f1:06:e6:8d:6a:7c:0a:27:
                    22:19:b9:06:09:cf:ef:c7:dc:e8:8f:04:4b:83:0d:
                    cc:8d:b1:c2:cf:ab:40:25:6e:f2:bf:b7:c6:1d:8f:
                    d2:fc:3d:c8:a1:be:4a:09:b9:91:e3:76:4f:c7:9b:
                    fc:2f:de:d9:bb:eb:df:d3:d8:8c:72:79:bd:bf:10:
                    8b:01:e6:0f:7f:bb:f6:75:31:5a:40:ad:df:e1:07:
                    e6:12:12:b2:d3:99:d0:bd:24:5a:9a:ce:62:4f:da:
                    fe:0d:df:09:ae:da:04:83:54:e8:cb:68:c0:57:78:
                    c2:f4:68:42:d7:f4:81:4a:a3:b4:4e:0b:49:95:26:
                    1d:15
                Exponent: 65537 (0x10001)
        X509v3 extensions:
            X509v3 Basic Constraints: 
                CA:FALSE
            X509v3 Subject Key Identifier: 
                8E:99:9D:C0:70:98:57:16:08:8E:DF:6E:51:78:A6:86:18:FF:06:52
            X509v3 Authority Key Identifier: 
                keyid:BA:CD:8E:03:77:4A:49:16:BB:D6:2E:6C:A3:9F:4B:C3:4C:5A:95:AB
                DirName:/CN=Easy-RSA CA
                serial:12:FD:5F:D3:28:D5:B6:4A:FE:44:D6:0B:22:D6:77:DD:E4:C9:C0:73
            X509v3 Extended Key Usage: 
                TLS Web Server Authentication
            X509v3 Key Usage: 
                Digital Signature, Key Encipherment
            X509v3 Subject Alternative Name: 
                DNS:127.0.0.1, IP Address:127.0.0.1
    Signature Algorithm: sha256WithRSAEncryption
    Signature Value:
        3e:56:20:f9:3b:fa:13:6e:7e:a9:80:a6:15:18:01:82:f1:b8:
        4d:1b:f1:ee:da:ed:50:f7:3b:13:01:a5:14:f9:4c:0e:34:57:
        dc:e6:d1:7e:02:30:af:3b:fd:c9:ae:18:16:c9:3b:0a:4e:20:
        da:cd:e8:cc:05:0c:b3:7d:6f:e5:15:ff:66:59:6b:fe:ff:1a:
        ef:ca:b5:3a:1a:ad:dd:f6:19:43:d9:2b:61:18:29:95:b4:0c:
        1e:b2:4a:ce:80:d3:1b:59:dc:62:ec:50:21:37:9c:2f:7a:4d:
        c2:ac:de:1b:1d:a3:25:e0:e8:33:42:cf:77:31:2a:f2:44:36:
        ef:59:89:da:6c:3e:9a:e8:d7:06:39:17:d5:78:82:6d:b6:63:
        3f:9a:40:3b:e6:12:58:52:3d:63:4e:85:0b:02:cb:40:d2:8a:
        59:8d:8f:ee:4a:c8:97:91:51:a9:2f:1b:15:81:9c:20:dd:94:
        08:6f:ac:fa:c6:28:90:6c:17:5a:23:87:9a:5b:e5:c6:2e:f3:
        09:66:de:76:1b:60:42:c1:5c:71:88:87:f6:7b:cb:e3:7e:14:
        67:c9:a0:15:98:b6:7b:75:40:9a:08:fc:77:39:3a:23:cb:e3:
        78:7d:57:f9:a7:66:36:b4:b5:07:de:61:3a:dd:07:58:b3:4f:
        41:f6:f4:d9
-----BEGIN CERTIFICATE-----
MIIDhDCCAmygAwIBAgIQQjilb3BTQOSkGiwP/IETQjANBgkqhkiG9w0BAQsFADAW
MRQwEgYDVQQDDAtFYXN5LVJTQSBDQTAeFw0yNjA0MjkxMjA5MzVaFw0yODA4MDEx
MjA5MzVaMCUxIzAhBgNVBAMMGmV4YW1wbGVfc3NsX3JjcGNfcmNwc19jZXJ0MIIB
IjANBgkqhkiG9w0BAQEFAAOCAQ8AMIIBCgKCAQEArg/h7vz223VFwPRJckY949sM
xDTSnknUhk8ZDVVwUIHk5mRWqFjo5lQKFrz0S4TNHbku7WK2zWI1i4EYq/9j9cHc
Fj6o3KwR3UMS+O/y8a+E/YP+qNNGfXfmrpVhpsmZa0BhjW5+Zh6Xd7Dotz061dfT
7maVYoMUzF4y/5698QbmjWp8CiciGbkGCc/vx9zojwRLgw3MjbHCz6tAJW7yv7fG
HY/S/D3Iob5KCbmR43ZPx5v8L97Zu+vf09iMcnm9vxCLAeYPf7v2dTFaQK3f4Qfm
EhKy05nQvSRams5iT9r+Dd8JrtoEg1Toy2jAV3jC9GhC1/SBSqO0TgtJlSYdFQID
AQABo4G+MIG7MAkGA1UdEwQCMAAwHQYDVR0OBBYEFI6ZncBwmFcWCI7fblF4poYY
/wZSMFEGA1UdIwRKMEiAFLrNjgN3SkkWu9YubKOfS8NMWpWroRqkGDAWMRQwEgYD
VQQDDAtFYXN5LVJTQSBDQYIUEv1f0yjVtkr+RNYLItZ33eTJwHMwEwYDVR0lBAww
CgYIKwYBBQUHAwEwCwYDVR0PBAQDAgWgMBoGA1UdEQQTMBGCCTEyNy4wLjAuMYcE
fwAAATANBgkqhkiG9w0BAQsFAAOCAQEAPlYg+Tv6E25+qYCmFRgBgvG4TRvx7trt
UPc7EwGlFPlMDjRX3ObRfgIwrzv9ya4YFsk7Ck4g2s3ozAUMs31v5RX/Zllr/v8a
78q1Ohqt3fYZQ9krYRgplbQMHrJKzoDTG1ncYuxQITecL3pNwqzeGx2jJeDoM0LP
dzEq8kQ271mJ2mw+mujXBjkX1XiCbbZjP5pAO+YSWFI9Y06FCwLLQNKKWY2P7krI
l5FRqS8bFYGcIN2UCG+s+sYokGwXWiOHmlvlxi7zCWbedhtgQsFccYiH9nvL434U
Z8mgFZi2e3VAmgj8dzk6I8vjeH1X+admNrS1B95hOt0HWLNPQfb02Q==
-----END CERTIFICATE-----
-----BEGIN PRIVATE KEY-----
MIIEvAIBADANBgkqhkiG9w0BAQEFAASCBKYwggSiAgEAAoIBAQCuD+Hu/PbbdUXA
9ElyRj3j2wzENNKeSdSGTxkNVXBQgeTmZFaoWOjmVAoWvPRLhM0duS7tYrbNYjWL
gRir/2P1wdwWPqjcrBHdQxL47/Lxr4T9g/6o00Z9d+aulWGmyZlrQGGNbn5mHpd3
sOi3PTrV19PuZpVigxTMXjL/nr3xBuaNanwKJyIZuQYJz+/H3OiPBEuDDcyNscLP
q0AlbvK/t8Ydj9L8PcihvkoJuZHjdk/Hm/wv3tm769/T2Ixyeb2/EIsB5g9/u/Z1
MVpArd/hB+YSErLTmdC9JFqazmJP2v4N3wmu2gSDVOjLaMBXeML0aELX9IFKo7RO
C0mVJh0VAgMBAAECggEAGBhmQhdeE+Cu1Ihsn2dWW3PAF2wpiNR3GVWbRfOBHf/x
QCx9K4ZNTU8ua1niZo7edyIiuyVaYWGaQHLRR8QNoiBhN2oapZujSHInzvKmeqr9
ubt7NgMzQ5ykwB+5OiW3uXda2cGFOV08QgspF+6ftakQMzUbslyrdSQIIscmi5Ya
uTDvE6+lBFinxy3RHFKVCZ3UrsDwfHR4eTUmgCHRB27joB7DFXL32amv0M8HjoGz
EZKGJgTwmRf9U4z4D4wCnOfVAPlsuthKUqMuTlBg0ZEstMZrzlP4suT2ieku0Usv
0XbJ38VozPYYFdR7nApVVvrJgHzI9cpoUbGto4BLOQKBgQDbXjFVLffOec8hv9dN
2VGZQmK61S9OrbvTnEOlxJd+kRid71X1pV5TuPKJJQtUJXf429bQOs40YbLeOmJt
BiRSR5yIBH7hDDC/c0ynqunstwDlgz+QX2Oh2B4alvVaWy0rZYF6NpBiI0+R5r5V
C2fHRS4LLPoflg83+CMubyLS6QKBgQDLIOXxlp1JQTzXhJkrkytLkafmEHAafovt
wbRD50/s+dl16BRX12sK0gXj2vwu0FleUD6Z7afDfspmvQdg3fyDxYw9Q+vw5LYQ
7BvoVU99o1m468yXwX/v36peCt4nOpwkJZKJfjgxjnMJByyeSUgL9uW4K+0D0LBV
a5Iv7QklTQKBgH30BkVPIHKIE/rfyIJlXemuaTu2/fOh4y9sEJdUWluMeeLssaFa
ct+FWJSQFYIaBVl4+E0VBqKi2e2o/ix1E1O+1ExwsF0M/8xdKk024BtPNA+TnWKK
so0Rpq9Dr9pScYvyOzZtr9b5SU2PfAcehlavDPHTwEV0hoZvTdvyab9JAoGADMBJ
7vp3cSvJN/Y470VTyHCiS4zonKEpA4nPWRviJowgnIgvDryVGZ7Jg94xSncFxSfg
ZiVHDLye1Ag1uFz3BwaVoRrsarjQvQs1TUZdsRNaBIO42iXpdBNkTHb+LxQ8zQAW
zM7BlErO6dgrctxCy416Ki+Ht1+YUiRojt2gX1kCgYBqytUy+XkPi5j3Ga29xcvP
WI3Uc8RI2GmoAmrw5QFiSG6lNXAzfo2ZNQbFnxgxeMOG9fV9yzBdIjXWNWr0E/KH
Fsb65R8iIrXQB9BZjuQqjz9nDm7eZZUBNGGbQ4DgSepnp194gXC5DoAElzuwOXbE
pY/kM1KwlpUR3J3LeF3i+Q==
-----END PRIVATE KEY-----
