Certificate:
    Data:
        Version: 3 (0x2)
        Serial Number:
            28:96:2e:a1:40:e0:7e:f1:fb:63:1a:f4:53:6f:ce:fb
        Signature Algorithm: sha256WithRSAEncryption
        Issuer: CN=Easy-RSA CA
        Validity
            Not Before: Apr 29 12:09:35 2026 GMT
            Not After : Aug  1 12:09:35 2028 GMT
        Subject: CN=example_ssl_rcps_rcpm_cert
        Subject Public Key Info:
            Public Key Algorithm: rsaEncryption
                Public-Key: (2048 bit)
                Modulus:
                    00:ae:11:46:ef:d1:81:34:dd:23:5d:54:40:f3:9c:
                    85:35:95:a6:91:57:92:5c:bf:eb:40:34:69:eb:db:
                    c0:86:3c:7b:ff:9c:d7:ba:0e:41:57:84:15:cd:94:
                    f1:48:63:50:9c:34:97:ee:be:be:b0:27:d8:fd:cd:
                    8a:cf:85:ff:08:1f:07:d8:28:96:0e:e4:2d:d0:8b:
                    df:a8:fa:41:47:a0:a2:80:2e:2e:58:01:cc:6f:43:
                    5c:c2:fb:84:a7:ff:9e:97:bb:b3:a3:1f:63:64:73:
                    8d:73:dd:f4:7e:96:d7:6b:b3:cb:e2:35:59:55:e0:
                    e7:e3:c0:41:f8:b6:0f:c5:46:4c:cd:0e:91:80:ef:
                    e3:43:f0:72:26:12:10:be:83:a2:db:23:2d:b4:b1:
                    07:5a:b1:b3:10:9c:09:69:98:42:79:81:77:5e:22:
                    e4:71:47:70:27:15:2c:a7:13:c2:6d:44:59:b4:73:
                    c9:bb:27:7f:d6:e8:3d:85:bb:36:f6:cb:71:36:11:
                    b1:99:1a:1d:1a:15:dd:cd:65:7f:cd:cc:10:00:49:
                    ed:07:2d:7b:15:88:be:73:ba:1d:15:69:bc:d3:02:
                    55:ea:dc:2c:3f:0b:cd:18:57:59:7a:e3:09:b2:89:
                    cd:d6:e7:f6:95:c4:2e:8a:53:2b:a8:96:82:94:53:
                    00:77
                Exponent: 65537 (0x10001)
        X509v3 extensions:
            X509v3 Basic Constraints: 
                CA:FALSE
            X509v3 Subject Key Identifier: 
                60:BD:48:06:68:15:D4:DC:ED:EE:E4:C7:B1:9F:C4:93:6D:50:3A:77
            X509v3 Authority Key Identifier: 
                keyid:BA:CD:8E:03:77:4A:49:16:BB:D6:2E:6C:A3:9F:4B:C3:4C:5A:95:AB
                DirName:/CN=Easy-RSA CA
                serial:12:FD:5F:D3:28:D5:B6:4A:FE:44:D6:0B:22:D6:77:DD:E4:C9:C0:73
            X509v3 Extended Key Usage: 
                TLS Web Server Authentication
            X509v3 Key Usage: 
                Digital Signature, Key Encipherment
            X509v3 Subject Alternative Name: 
                DNS:127.0.0.1, IP Address:127.0.0.1
    Signature Algorithm: sha256WithRSAEncryption
    Signature Value:
        c5:35:61:58:23:e2:69:da:6c:d5:41:ab:a8:70:f4:dd:cc:a0:
        a3:3d:84:89:93:b6:7f:69:7d:10:35:9d:c5:d1:0d:db:d2:d7:
        36:af:d4:54:30:14:a7:5d:31:ca:5c:13:92:d5:60:50:f8:56:
        4a:cb:16:b1:b3:b1:03:bf:96:53:77:1f:4a:0f:9c:29:2b:bf:
        a4:e0:da:6f:ad:13:c7:2d:8e:18:c4:72:50:17:ed:1f:36:51:
        7a:12:9f:fc:a6:d6:c8:55:e0:db:ea:16:d6:22:0d:a2:cb:eb:
        b2:ba:07:92:2f:db:33:d6:a2:0c:ec:89:29:f1:96:40:e5:0b:
        e6:1f:08:50:d6:29:87:a8:20:b2:e2:17:50:25:ff:53:36:ee:
        7f:ce:e6:1d:ed:b3:16:61:18:42:a9:17:9e:a6:86:0d:a5:fc:
        f9:42:c8:50:48:74:72:35:eb:8c:ff:4d:e8:98:88:a0:b4:b3:
        d0:82:b3:2f:ea:19:d7:d5:ac:47:35:96:24:37:34:0c:7a:a2:
        e0:4d:99:a7:55:61:85:1e:7e:6a:23:77:f5:07:13:e6:50:5c:
        65:00:13:f6:b5:4b:5b:8c:11:c3:5d:af:ba:41:e9:84:1d:f1:
        a4:70:16:28:c2:be:6e:d8:67:38:c5:a0:ba:8a:64:6f:27:ce:
        63:a0:92:9b
-----BEGIN CERTIFICATE-----
MIIDhDCCAmygAwIBAgIQKJYuoUDgfvH7Yxr0U2/O+zANBgkqhkiG9w0BAQsFADAW
MRQwEgYDVQQDDAtFYXN5LVJTQSBDQTAeFw0yNjA0MjkxMjA5MzVaFw0yODA4MDEx
MjA5MzVaMCUxIzAhBgNVBAMMGmV4YW1wbGVfc3NsX3JjcHNfcmNwbV9jZXJ0MIIB
IjANBgkqhkiG9w0BAQEFAAOCAQ8AMIIBCgKCAQEArhFG79GBNN0jXVRA85yFNZWm
kVeSXL/rQDRp69vAhjx7/5zXug5BV4QVzZTxSGNQnDSX7r6+sCfY/c2Kz4X/CB8H
2CiWDuQt0IvfqPpBR6CigC4uWAHMb0NcwvuEp/+el7uzox9jZHONc930fpbXa7PL
4jVZVeDn48BB+LYPxUZMzQ6RgO/jQ/ByJhIQvoOi2yMttLEHWrGzEJwJaZhCeYF3
XiLkcUdwJxUspxPCbURZtHPJuyd/1ug9hbs29stxNhGxmRodGhXdzWV/zcwQAEnt
By17FYi+c7odFWm80wJV6twsPwvNGFdZeuMJsonN1uf2lcQuilMrqJaClFMAdwID
AQABo4G+MIG7MAkGA1UdEwQCMAAwHQYDVR0OBBYEFGC9SAZoFdTc7e7kx7GfxJNt
UDp3MFEGA1UdIwRKMEiAFLrNjgN3SkkWu9YubKOfS8NMWpWroRqkGDAWMRQwEgYD
VQQDDAtFYXN5LVJTQSBDQYIUEv1f0yjVtkr+RNYLItZ33eTJwHMwEwYDVR0lBAww
CgYIKwYBBQUHAwEwCwYDVR0PBAQDAgWgMBoGA1UdEQQTMBGCCTEyNy4wLjAuMYcE
fwAAATANBgkqhkiG9w0BAQsFAAOCAQEAxTVhWCPiadps1UGrqHD03cygoz2EiZO2
f2l9EDWdxdEN29LXNq/UVDAUp10xylwTktVgUPhWSssWsbOxA7+WU3cfSg+cKSu/
pODab60Txy2OGMRyUBftHzZRehKf/KbWyFXg2+oW1iINosvrsroHki/bM9aiDOyJ
KfGWQOUL5h8IUNYph6ggsuIXUCX/Uzbuf87mHe2zFmEYQqkXnqaGDaX8+ULIUEh0
cjXrjP9N6JiIoLSz0IKzL+oZ19WsRzWWJDc0DHqi4E2Zp1VhhR5+aiN39QcT5lBc
ZQAT9rVLW4wRw12vukHphB3xpHAWKMK+bthnOMWguopkbyfOY6CSmw==
-----END CERTIFICATE-----
-----BEGIN PRIVATE KEY-----
MIIEvAIBADANBgkqhkiG9w0BAQEFAASCBKYwggSiAgEAAoIBAQCuEUbv0YE03SNd
VEDznIU1laaRV5Jcv+tANGnr28CGPHv/nNe6DkFXhBXNlPFIY1CcNJfuvr6wJ9j9
zYrPhf8IHwfYKJYO5C3Qi9+o+kFHoKKALi5YAcxvQ1zC+4Sn/56Xu7OjH2Nkc41z
3fR+ltdrs8viNVlV4OfjwEH4tg/FRkzNDpGA7+ND8HImEhC+g6LbIy20sQdasbMQ
nAlpmEJ5gXdeIuRxR3AnFSynE8JtRFm0c8m7J3/W6D2Fuzb2y3E2EbGZGh0aFd3N
ZX/NzBAASe0HLXsViL5zuh0VabzTAlXq3Cw/C80YV1l64wmyic3W5/aVxC6KUyuo
loKUUwB3AgMBAAECggEABGfLiSZJmYeUmDgZrLtkDlx16sJx9zGkR+u2V+cn6D3U
+uiCoo2EedfjSrYKT/AI35Xf19sGrc6ptJgPJfwY3aEWFxJv5HtB7ZVHWS98QiPT
+QqHgb1fPzGlQgoQ7Bo8GVBW1joPz0Bdbsv0ntTn1CyowauNUe8Z71mzpxJ0iQ7u
Z8LNoD7INEAZDBjHVov6pLGDHS9KFxGy20WG549mE37I4QxyxetJEgmuyhJkZOQ4
noEWiCMQjGsSg4YuSc1GS1jAVf3p2g3/TiheD/31r1jleY/T5s2qYC6MJ4vY+7yA
5sl7m8A47i0lHSKBdR3nWz+vXEsxB0nXK3Sulyt9AQKBgQDYRZ1nEe32CCZcWn/7
nG+9e6XNOe9E25skuvY/uEpikt92kdnyZOgHFfwM9Nv+w2IWGLZ8MmDDJ6/4hGvj
fJjcOUb3d/SJiivPvdRC9GYMrDUZe5AJ3p6fPqi4IeZOw7bMTcVB6aHAr9KoO//J
2t0WNvwzkOyl6KlhaQEIDK8bOQKBgQDOCvWvUEg8nHaKcmN0uQaKuPvCorhnyqUT
VFqLlSrYC79ffHCwp2y8nkFUnxpeHXENrtHtcrdnKBNkgGEn2l4xs63CjhKrBuIG
bDjrtp3vKlHRhQjX6HkrEEuUk52wYzuX7CfU8nTZnrtV74MocOEewJVW+84Rtwiw
vIUcgfgJLwKBgAbgj9TLOSntsGqXZiJ2Iwd/exI/mWAzK4fLejEkhxkDWp/Gm4ud
sdMn28/9qVE8nU3ek073uyP5ixr3+wZM2/+EwsDzy47kGeiNPMa0Rtp4T2f0CeyG
a7zcnTjduxkeGB3/CxrBdydNcAFxhvzAPO+L6BErtpq//0Ldt+6tmJPhAoGAFxEh
Cjx5qdd2ae9+dO3V7qfg/5xJ+sy0CGL0NBZCEqfWB/GdiBlmUgOBmuCpCgpPwtFk
jSm/oJva9/BrcBPBYd0Uweg37M+7dC6ffLwYGFNrj4JOSCWtkwWjAII6MCob3NlC
aFOwg0CDBo7m5xskCNZUocVU/6S3I1onqNZgF18CgYAczBf1NS4VPZvebrutTBEH
zyUX3XU9mR+dy0ncCGNVS8zYMtz7cweZInzNB2cTOfisIHzzdOnazm7D9uzPsREi
pKgaL+ErWYDlGiDTxMtGSRPTWGocYBYdU6y/0bobhZb0qyvyRhpGvPK0ReMUuvqu
FkNgoQ1lo0n6vawvxWW8Mw==
-----END PRIVATE KEY-----
