Certificate:
    Data:
        Version: 3 (0x2)
        Serial Number:
            e7:09:ab:70:b5:dc:1f:11:d9:2a:23:04:39:87:34:f3
        Signature Algorithm: sha256WithRSAEncryption
        Issuer: CN=Easy-RSA CA
        Validity
            Not Before: Apr 29 12:09:35 2026 GMT
            Not After : Aug  1 12:09:35 2028 GMT
        Subject: CN=example_ssl_rcpm_rcps_cert
        Subject Public Key Info:
            Public Key Algorithm: rsaEncryption
                Public-Key: (2048 bit)
                Modulus:
                    00:cc:79:9b:d3:f3:1f:41:9f:00:48:cd:47:0b:ae:
                    b9:1c:4e:3e:55:e2:4e:5f:a8:cc:13:d5:dd:bd:f0:
                    01:4c:19:ae:e3:a9:09:06:89:92:49:f7:bb:90:28:
                    fb:8c:22:69:b5:f5:a0:50:3d:97:0f:1e:1d:b1:a8:
                    57:9b:d7:e2:0d:99:67:7f:02:82:0c:9c:8e:dd:13:
                    03:28:93:b5:cb:7e:b5:78:06:10:bf:7b:55:c3:f7:
                    10:8b:20:4a:1c:f9:f1:b2:fa:f1:c7:44:9d:0a:ce:
                    ef:8d:f9:e8:ff:d1:c1:69:ec:8e:5f:11:cc:c9:98:
                    d5:1c:33:e2:5b:7a:4d:34:dc:76:c3:cd:db:4c:93:
                    d1:08:78:6f:3c:9a:ee:74:39:1e:cd:65:1e:c9:35:
                    cc:3b:2b:9e:d7:49:10:8e:58:85:b0:10:5b:90:1e:
                    f1:5e:d5:92:04:93:f9:33:c6:9d:77:63:d1:33:46:
                    5b:98:ff:9a:a8:f5:df:f7:84:21:e2:88:28:7a:a4:
                    c6:0d:9f:25:7e:0d:73:5b:d5:53:4a:90:79:94:37:
                    14:f3:c8:75:76:d4:1c:32:51:bf:58:16:74:d5:8d:
                    18:b6:53:f4:ab:cb:91:a8:8c:a3:ca:3c:5c:35:b6:
                    5f:62:57:37:5a:75:28:b7:4d:26:aa:ea:50:da:a4:
                    1c:55
                Exponent: 65537 (0x10001)
        X509v3 extensions:
            X509v3 Basic Constraints: 
                CA:FALSE
            X509v3 Subject Key Identifier: 
                47:92:B5:81:8B:5C:14:98:B3:83:B6:EB:06:9F:43:F3:3A:7E:ED:24
            X509v3 Authority Key Identifier: 
                keyid:BA:CD:8E:03:77:4A:49:16:BB:D6:2E:6C:A3:9F:4B:C3:4C:5A:95:AB
                DirName:/CN=Easy-RSA CA
                serial:12:FD:5F:D3:28:D5:B6:4A:FE:44:D6:0B:22:D6:77:DD:E4:C9:C0:73
            X509v3 Extended Key Usage: 
                TLS Web Server Authentication
            X509v3 Key Usage: 
                Digital Signature, Key Encipherment
            X509v3 Subject Alternative Name: 
                DNS:127.0.0.1, IP Address:127.0.0.1
    Signature Algorithm: sha256WithRSAEncryption
    Signature Value:
        6d:31:e6:29:d2:3b:a8:90:5c:4b:ac:61:15:95:5d:70:66:a5:
        77:9d:88:47:49:73:75:be:70:69:d8:2f:62:82:5e:83:86:3b:
        a8:48:3f:f1:5f:22:ae:81:23:64:c4:f2:2b:dd:4d:be:e5:6a:
        26:a5:ea:c7:ba:1b:3e:6a:34:03:5a:f1:49:28:5f:56:4a:a6:
        0e:1b:7a:07:48:76:95:b6:4b:f5:3f:b9:67:2e:e0:33:06:80:
        d4:d6:01:a5:76:01:c0:a5:18:e5:38:8b:52:73:6e:6d:45:50:
        b7:9a:ab:86:5d:e3:65:b4:b8:c7:ee:b2:dc:bf:e3:d5:bb:e4:
        91:eb:f5:0c:38:22:5e:37:54:9e:ba:96:25:10:04:18:23:f7:
        ae:73:4d:d0:aa:03:81:b4:89:36:97:15:da:1a:60:a0:98:5f:
        03:f8:1b:22:83:57:41:4b:12:28:7d:8d:ea:88:74:24:28:5c:
        53:41:89:5e:9a:da:fd:7b:bf:60:dc:de:9b:49:ce:5c:a3:b2:
        01:7d:1d:cb:28:8c:ba:f4:7b:5d:2b:cb:15:5b:2a:97:1a:d1:
        f9:e7:12:e3:43:b9:f4:2a:88:dd:6d:b6:a0:72:d3:bd:63:23:
        e9:d7:f0:ac:b5:6d:0d:f2:d9:8b:2c:c4:35:5b:4d:83:dc:e8:
        7d:0b:3d:a3
-----BEGIN CERTIFICATE-----
MIIDhTCCAm2gAwIBAgIRAOcJq3C13B8R2SojBDmHNPMwDQYJKoZIhvcNAQELBQAw
FjEUMBIGA1UEAwwLRWFzeS1SU0EgQ0EwHhcNMjYwNDI5MTIwOTM1WhcNMjgwODAx
MTIwOTM1WjAlMSMwIQYDVQQDDBpleGFtcGxlX3NzbF9yY3BtX3JjcHNfY2VydDCC
ASIwDQYJKoZIhvcNAQEBBQADggEPADCCAQoCggEBAMx5m9PzH0GfAEjNRwuuuRxO
PlXiTl+ozBPV3b3wAUwZruOpCQaJkkn3u5Ao+4wiabX1oFA9lw8eHbGoV5vX4g2Z
Z38Cggycjt0TAyiTtct+tXgGEL97VcP3EIsgShz58bL68cdEnQrO74356P/RwWns
jl8RzMmY1Rwz4lt6TTTcdsPN20yT0Qh4bzya7nQ5Hs1lHsk1zDsrntdJEI5YhbAQ
W5Ae8V7VkgST+TPGnXdj0TNGW5j/mqj13/eEIeKIKHqkxg2fJX4Nc1vVU0qQeZQ3
FPPIdXbUHDJRv1gWdNWNGLZT9KvLkaiMo8o8XDW2X2JXN1p1KLdNJqrqUNqkHFUC
AwEAAaOBvjCBuzAJBgNVHRMEAjAAMB0GA1UdDgQWBBRHkrWBi1wUmLODtusGn0Pz
On7tJDBRBgNVHSMESjBIgBS6zY4Dd0pJFrvWLmyjn0vDTFqVq6EapBgwFjEUMBIG
A1UEAwwLRWFzeS1SU0EgQ0GCFBL9X9Mo1bZK/kTWCyLWd93kycBzMBMGA1UdJQQM
MAoGCCsGAQUFBwMBMAsGA1UdDwQEAwIFoDAaBgNVHREEEzARggkxMjcuMC4wLjGH
BH8AAAEwDQYJKoZIhvcNAQELBQADggEBAG0x5inSO6iQXEusYRWVXXBmpXediEdJ
c3W+cGnYL2KCXoOGO6hIP/FfIq6BI2TE8ivdTb7laial6se6Gz5qNANa8UkoX1ZK
pg4begdIdpW2S/U/uWcu4DMGgNTWAaV2AcClGOU4i1Jzbm1FULeaq4Zd42W0uMfu
sty/49W75JHr9Qw4Il43VJ66liUQBBgj965zTdCqA4G0iTaXFdoaYKCYXwP4GyKD
V0FLEih9jeqIdCQoXFNBiV6a2v17v2Dc3ptJzlyjsgF9HcsojLr0e10ryxVbKpca
0fnnEuNDufQqiN1ttqBy071jI+nX8Ky1bQ3y2YssxDVbTYPc6H0LPaM=
-----END CERTIFICATE-----
-----BEGIN PRIVATE KEY-----
MIIEvgIBADANBgkqhkiG9w0BAQEFAASCBKgwggSkAgEAAoIBAQDMeZvT8x9BnwBI
zUcLrrkcTj5V4k5fqMwT1d298AFMGa7jqQkGiZJJ97uQKPuMImm19aBQPZcPHh2x
qFeb1+INmWd/AoIMnI7dEwMok7XLfrV4BhC/e1XD9xCLIEoc+fGy+vHHRJ0Kzu+N
+ej/0cFp7I5fEczJmNUcM+Jbek003HbDzdtMk9EIeG88mu50OR7NZR7JNcw7K57X
SRCOWIWwEFuQHvFe1ZIEk/kzxp13Y9EzRluY/5qo9d/3hCHiiCh6pMYNnyV+DXNb
1VNKkHmUNxTzyHV21BwyUb9YFnTVjRi2U/Sry5GojKPKPFw1tl9iVzdadSi3TSaq
6lDapBxVAgMBAAECggEADJFN6K9OWhYX1PcEWUgOLxqdCLd95Iccsfxot7ekcMUP
A4WnHRyACLqor9c2V3o2//IpU2fnB2IXu6ISmRd3WKl3hm4vnZmoIJeTpQm9Iv/g
+fqkyrbIgktcHDJUySal+n+jiYFNW2B1h1xXUT/scMz+FthNJg1Azfi0vorMFjCk
SBOSo7BQ2hiQ83FneVJU1TsxD4S4IBLx9fF6AW05norRmvm17Ip2pKk4QYzKiOI3
NIoSwbOgU0Vp1X3MMlilM5ZZdN3a9lI6lfBZE682WOxBmH67mKMQnR8aC+nwynQ+
45pUQIn8Fjx2hQHehbD7ZNw9Nob9AyGWqWGKFV74IQKBgQDox/j7dCHNm1mz1QRm
Q2YyN4OGXJI97t9Gd8UdNCv5bAkdx2cR2lmP3tRc6iAzrfNIpPCGaXo1vwJx477X
wO95W2b4hfm3j6v0cqRbsFzzVIHZUB77pXfAJfZeICpoqu0vxn5nb+yPgzgmToLX
pbIDdqWafzzrDLTmLCfwfKDI9QKBgQDg3tgpAXo8WCL4phNuW44XQ172lPTijpn+
wj1Z0rBrS806gL/+QvZZLS1WCym/QBV7TgGlxIJbmAfghcGyin3NliskSHAiccxG
/9eCSQes8czfsVj6qmBMwyff5r+wmk662qV0u07UHmuykYk3Dgs/zYdwq2SsTlL4
Y9eRjutp4QKBgQCONg0wYcR8/hmROeRULXzz1OJvZYKaf6K8RFOSAduTp6LyJG4d
hA4PTQzkLsy5hd4JVWr0UuAskaMGvSJMYTxsIaEI16C1ufpNfvRWZ6qBpfEmOEKV
boN4Sjj3TCNcioAZHeT/gGs/SeU10eUxpbLZVtTZTD6FQuAJdpR34UvBOQKBgFNM
mXxPLM2vxHyhYK9PwQoDDel/8lr+gjMqFvnwHyQP911FllmEyqbsIlAuYG+VOJ/t
nJSgf72YSsq0IbWWsdV3XFHbd5Z62zYtzdJYZTx+cesnUhPBC11EKcA6RSYRczqq
hgIA5MmU30ZNvSukyyv+Yb6t7uQZO4kByzgDXldhAoGBALgRkAHxgbKUXp5XyCDJ
e8dwVx0g9tfDM/DEZtU/Si5oUaunBaPV/Byov7OXOT02V8JLnA5ChUYgwUFI030x
QL/3eK12Qh5Gb9VabvYCicDRk4GzmqZU9Wcvm1zgbUr5jY8Lou44nFjol/Y1m70n
51WZbVkkWmBZO5m3NqN66SkJ
-----END PRIVATE KEY-----
